; Function Attrs: nounwind uwtable
define internal ptr @mac_hmac_settable_ctx_params(ptr readnone captures(none) %0, ptr noundef %1) #0 {
  %3 = tail call ptr @ossl_prov_ctx_get0_libctx(ptr noundef %1) #3
  %4 = tail call ptr @EVP_MAC_fetch(ptr noundef %3, ptr noundef nonnull @.str, ptr noundef null) #3
  %5 = icmp eq ptr %4, null
  br i1 %5, label %mac_settable_ctx_params.exit, label %6

6:                                                ; preds = %2
  %7 = tail call ptr @EVP_MAC_settable_ctx_params(ptr noundef nonnull %4) #3
  tail call void @EVP_MAC_free(ptr noundef nonnull %4) #3
  br label %mac_settable_ctx_params.exit

mac_settable_ctx_params.exit:                     ; preds = %2, %6
  %.0.i = phi ptr [ %7, %6 ], [ null, %2 ]
  ret ptr %.0.i
}